; Function Attrs: mustprogress uwtable
define void @_ZN5boost7process2v211environment6detail5unsetENS1_17basic_cstring_refIcSt11char_traitsIcEEERNS_6system10error_codeE(ptr nocapture readonly %0, ptr nocapture noundef nonnull writeonly align 8 dereferenceable(24) %1) local_unnamed_addr #4 {
  %3 = alloca %"class.boost::system::error_code", align 8
  %4 = tail call i32 @unsetenv(ptr noundef %0) #18
  %.not = icmp eq i32 %4, 0
  br i1 %.not, label %8, label %5

5:                                                ; preds = %2
  call void @llvm.lifetime.start.p0(i64 24, ptr nonnull %3) #18
  call void @_ZN5boost7process2v26detail14get_last_errorEv(ptr dead_on_unwind nonnull writable sret(%"class.boost::system::error_code") align 8 %3)
  %.sroa.5.0..sroa_idx3.i = getelementptr inbounds i8, ptr %3, i64 16
  %.sroa.5.0.copyload4.i = load i64, ptr %.sroa.5.0..sroa_idx3.i, align 8, !tbaa !14
  %switch.i.i = icmp ult i64 %.sroa.5.0.copyload4.i, 2
  %6 = and i64 %.sroa.5.0.copyload4.i, 1
  %7 = or disjoint i64 %6, ptrtoint (ptr @_ZZN5boost7process2v211environment6detail5unsetENS1_17basic_cstring_refIcSt11char_traitsIcEEERNS_6system10error_codeEE11loc__LINE__ to i64)
  %.sroa.5.0.i = select i1 %switch.i.i, i64 %.sroa.5.0.copyload4.i, i64 %7
  call void @llvm.memcpy.p0.p0.i64(ptr noundef nonnull align 8 dereferenceable(24) %1, ptr noundef nonnull align 8 dereferenceable(24) %3, i64 16, i1 false)
  %.sroa.5.0..sroa_idx.i = getelementptr inbounds i8, ptr %1, i64 16
  store i64 %.sroa.5.0.i, ptr %.sroa.5.0..sroa_idx.i, align 8, !tbaa !14
  call void @llvm.lifetime.end.p0(i64 24, ptr nonnull %3) #18
  br label %8

8:                                                ; preds = %5, %2
  ret void
}